target datalayout = "e-m:e-p270:32:32-p271:32:32-p272:64:64-i64:64-i128:128-f80:128-n8:16:32:64-S128"
target triple = "x86_64-pc-linux-gnu"

%struct.WebPChunk = type { i32, i32, %struct.WebPData, ptr }
%struct.WebPData = type { ptr, i64 }

; Function Attrs: nounwind uwtable
define hidden i32 @ChunkSetHead(ptr noundef %0, ptr noundef %1) #0 {
  %3 = alloca i32, align 4
  %4 = alloca ptr, align 8
  %5 = alloca ptr, align 8
  %6 = alloca ptr, align 8
  %7 = alloca i32, align 4
  store ptr %0, ptr %4, align 8, !tbaa !3
  store ptr %1, ptr %5, align 8, !tbaa !33
  call void @llvm.lifetime.start.p0(i64 8, ptr %6) #6
  %8 = load ptr, ptr %5, align 8, !tbaa !33
  %9 = load ptr, ptr %8, align 8, !tbaa !3
  %10 = icmp ne ptr %9, null
  br i1 %10, label %11, label %12

11:                                               ; preds = %2
  store i32 0, ptr %3, align 4
  store i32 1, ptr %7, align 4
  br label %26

12:                                               ; preds = %2
  %13 = call ptr @WebPSafeMalloc(i64 noundef 1, i64 noundef 32)
  store ptr %13, ptr %6, align 8, !tbaa !3
  %14 = load ptr, ptr %6, align 8, !tbaa !3
  %15 = icmp eq ptr %14, null
  br i1 %15, label %16, label %17

16:                                               ; preds = %12
  store i32 -3, ptr %3, align 4
  store i32 1, ptr %7, align 4
  br label %26

17:                                               ; preds = %12
  %18 = load ptr, ptr %6, align 8, !tbaa !3
  %19 = load ptr, ptr %4, align 8, !tbaa !3
  call void @llvm.memcpy.p0.p0.i64(ptr align 8 %18, ptr align 8 %19, i64 32, i1 false), !tbaa.struct !35
  %20 = load ptr, ptr %4, align 8, !tbaa !3
  %21 = getelementptr inbounds nuw %struct.WebPChunk, ptr %20, i32 0, i32 1
  store i32 0, ptr %21, align 4, !tbaa !14
  %22 = load ptr, ptr %6, align 8, !tbaa !3
  %23 = getelementptr inbounds nuw %struct.WebPChunk, ptr %22, i32 0, i32 3
  store ptr null, ptr %23, align 8, !tbaa !15
  %24 = load ptr, ptr %6, align 8, !tbaa !3
  %25 = load ptr, ptr %5, align 8, !tbaa !33
  store ptr %24, ptr %25, align 8, !tbaa !3
  store i32 1, ptr %3, align 4
  store i32 1, ptr %7, align 4
  br label %26

26:                                               ; preds = %17, %16, %11
  call void @llvm.lifetime.end.p0(i64 8, ptr %6) #6
  %27 = load i32, ptr %3, align 4
  ret i32 %27
}