; Function Attrs: nounwind uwtable
define hidden range(i32 -3, 2) i32 @ChunkSetHead(ptr noundef captures(none) %0, ptr noundef captures(none) %1) local_unnamed_addr #3 {
  %3 = load ptr, ptr %1, align 8, !tbaa !28
  %.not = icmp eq ptr %3, null
  br i1 %.not, label %4, label %10

4:                                                ; preds = %2
  %5 = tail call ptr @WebPSafeMalloc(i64 noundef 1, i64 noundef 32) #13
  %6 = icmp eq ptr %5, null
  br i1 %6, label %10, label %7

7:                                                ; preds = %4
  tail call void @llvm.memcpy.p0.p0.i64(ptr noundef nonnull align 8 dereferenceable(32) %5, ptr noundef nonnull align 8 dereferenceable(32) %0, i64 24, i1 false), !tbaa.struct !29
  %8 = getelementptr inbounds nuw i8, ptr %0, i64 4
  store i32 0, ptr %8, align 4, !tbaa !3
  %9 = getelementptr inbounds nuw i8, ptr %5, i64 24
  store ptr null, ptr %9, align 8, !tbaa !14
  store ptr %5, ptr %1, align 8, !tbaa !28
  br label %10

10:                                               ; preds = %4, %2, %7
  %.0 = phi i32 [ 1, %7 ], [ 0, %2 ], [ -3, %4 ]
  ret i32 %.0
}